; Function Attrs: nounwind uwtable
define internal noundef i32 @module_traverse(ptr noundef %0, ptr noundef readonly captures(none) %1, ptr noundef %2) #0 {
  %4 = tail call ptr @PyModule_GetState(ptr noundef %0) #7
  %5 = getelementptr i8, ptr %4, i64 8
  %.val = load ptr, ptr %5, align 8, !tbaa !3
  %.not.i = icmp eq ptr %.val, null
  br i1 %.not.i, label %traverse_module_state.exit, label %6

6:                                                ; preds = %3
  %7 = tail call i32 %1(ptr noundef nonnull %.val, ptr noundef %2) #7
  br label %traverse_module_state.exit

traverse_module_state.exit:                       ; preds = %6, %3
  ret i32 0
}